target datalayout = "e-m:e-p270:32:32-p271:32:32-p272:64:64-i64:64-i128:128-f80:128-n8:16:32:64-S128"
target triple = "x86_64-pc-linux-gnu"

%struct.blas_arg_t = type { ptr, ptr, ptr, ptr, ptr, ptr, i64, i64, i64, i64, i64, i64, i64, ptr, i64, ptr, i32 }

; Function Attrs: nounwind uwtable
define internal i32 @sbmv_kernel(ptr noundef %0, ptr noundef %1, ptr noundef %2, ptr noundef %3, ptr noundef %4, i64 noundef %5) #0 {
  %7 = alloca ptr, align 8
  %8 = alloca ptr, align 8
  %9 = alloca ptr, align 8
  %10 = alloca ptr, align 8
  %11 = alloca ptr, align 8
  %12 = alloca i64, align 8
  %13 = alloca ptr, align 8
  %14 = alloca ptr, align 8
  %15 = alloca ptr, align 8
  %16 = alloca i64, align 8
  %17 = alloca i64, align 8
  %18 = alloca i64, align 8
  %19 = alloca i64, align 8
  %20 = alloca i64, align 8
  %21 = alloca i64, align 8
  %22 = alloca i64, align 8
  %23 = alloca i64, align 8
  %24 = alloca double, align 8
  store ptr %0, ptr %7, align 8, !tbaa !37
  store ptr %1, ptr %8, align 8, !tbaa !38
  store ptr %2, ptr %9, align 8, !tbaa !38
  store ptr %3, ptr %10, align 8, !tbaa !9
  store ptr %4, ptr %11, align 8, !tbaa !9
  store i64 %5, ptr %12, align 8, !tbaa !3
  call void @llvm.lifetime.start.p0(i64 8, ptr %13) #6
  call void @llvm.lifetime.start.p0(i64 8, ptr %14) #6
  call void @llvm.lifetime.start.p0(i64 8, ptr %15) #6
  call void @llvm.lifetime.start.p0(i64 8, ptr %16) #6
  call void @llvm.lifetime.start.p0(i64 8, ptr %17) #6
  call void @llvm.lifetime.start.p0(i64 8, ptr %18) #6
  call void @llvm.lifetime.start.p0(i64 8, ptr %19) #6
  call void @llvm.lifetime.start.p0(i64 8, ptr %20) #6
  call void @llvm.lifetime.start.p0(i64 8, ptr %21) #6
  call void @llvm.lifetime.start.p0(i64 8, ptr %22) #6
  call void @llvm.lifetime.start.p0(i64 8, ptr %23) #6
  call void @llvm.lifetime.start.p0(i64 8, ptr %24) #6
  %25 = load ptr, ptr %7, align 8, !tbaa !37
  %26 = getelementptr inbounds nuw %struct.blas_arg_t, ptr %25, i32 0, i32 0
  %27 = load ptr, ptr %26, align 8, !tbaa !17
  store ptr %27, ptr %13, align 8, !tbaa !9
  %28 = load ptr, ptr %7, align 8, !tbaa !37
  %29 = getelementptr inbounds nuw %struct.blas_arg_t, ptr %28, i32 0, i32 1
  %30 = load ptr, ptr %29, align 8, !tbaa !18
  store ptr %30, ptr %14, align 8, !tbaa !9
  %31 = load ptr, ptr %7, align 8, !tbaa !37
  %32 = getelementptr inbounds nuw %struct.blas_arg_t, ptr %31, i32 0, i32 9
  %33 = load i64, ptr %32, align 8, !tbaa !20
  store i64 %33, ptr %16, align 8, !tbaa !3
  %34 = load ptr, ptr %7, align 8, !tbaa !37
  %35 = getelementptr inbounds nuw %struct.blas_arg_t, ptr %34, i32 0, i32 10
  %36 = load i64, ptr %35, align 8, !tbaa !21
  store i64 %36, ptr %17, align 8, !tbaa !3
  %37 = load ptr, ptr %7, align 8, !tbaa !37
  %38 = getelementptr inbounds nuw %struct.blas_arg_t, ptr %37, i32 0, i32 7
  %39 = load i64, ptr %38, align 8, !tbaa !14
  store i64 %39, ptr %18, align 8, !tbaa !3
  %40 = load ptr, ptr %7, align 8, !tbaa !37
  %41 = getelementptr inbounds nuw %struct.blas_arg_t, ptr %40, i32 0, i32 8
  %42 = load i64, ptr %41, align 8, !tbaa !16
  store i64 %42, ptr %19, align 8, !tbaa !3
  store i64 0, ptr %20, align 8, !tbaa !3
  %43 = load i64, ptr %18, align 8, !tbaa !3
  store i64 %43, ptr %21, align 8, !tbaa !3
  %44 = load ptr, ptr %11, align 8, !tbaa !9
  store ptr %44, ptr %15, align 8, !tbaa !9
  %45 = load i64, ptr %18, align 8, !tbaa !3
  %46 = mul nsw i64 1, %45
  %47 = add nsw i64 %46, 1023
  %48 = and i64 %47, -1024
  %49 = load ptr, ptr %11, align 8, !tbaa !9
  %50 = getelementptr inbounds double, ptr %49, i64 %48
  store ptr %50, ptr %11, align 8, !tbaa !9
  %51 = load ptr, ptr %8, align 8, !tbaa !38
  %52 = icmp ne ptr %51, null
  br i1 %52, label %53, label %66

53:                                               ; preds = %6
  %54 = load ptr, ptr %8, align 8, !tbaa !38
  %55 = getelementptr inbounds i64, ptr %54, i64 0
  %56 = load i64, ptr %55, align 8, !tbaa !3
  store i64 %56, ptr %20, align 8, !tbaa !3
  %57 = load ptr, ptr %8, align 8, !tbaa !38
  %58 = getelementptr inbounds i64, ptr %57, i64 1
  %59 = load i64, ptr %58, align 8, !tbaa !3
  store i64 %59, ptr %21, align 8, !tbaa !3
  %60 = load i64, ptr %20, align 8, !tbaa !3
  %61 = load i64, ptr %16, align 8, !tbaa !3
  %62 = mul nsw i64 %60, %61
  %63 = mul nsw i64 %62, 1
  %64 = load ptr, ptr %13, align 8, !tbaa !9
  %65 = getelementptr inbounds double, ptr %64, i64 %63
  store ptr %65, ptr %13, align 8, !tbaa !9
  br label %66

66:                                               ; preds = %53, %6
  %67 = load i64, ptr %17, align 8, !tbaa !3
  %68 = icmp ne i64 %67, 1
  br i1 %68, label %69, label %76

69:                                               ; preds = %66
  %70 = load i64, ptr %18, align 8, !tbaa !3
  %71 = load ptr, ptr %14, align 8, !tbaa !9
  %72 = load i64, ptr %17, align 8, !tbaa !3
  %73 = load ptr, ptr %11, align 8, !tbaa !9
  %74 = call i32 @dcopy_k(i64 noundef %70, ptr noundef %71, i64 noundef %72, ptr noundef %73, i64 noundef 1)
  %75 = load ptr, ptr %11, align 8, !tbaa !9
  store ptr %75, ptr %14, align 8, !tbaa !9
  br label %76

76:                                               ; preds = %69, %66
  %77 = load i64, ptr %18, align 8, !tbaa !3
  %78 = load ptr, ptr %15, align 8, !tbaa !9
  %79 = call i32 @dscal_k(i64 noundef %77, i64 noundef 0, i64 noundef 0, double noundef 0.000000e+00, ptr noundef %78, i64 noundef 1, ptr noundef null, i64 noundef 0, ptr noundef null, i64 noundef 0)
  %80 = load i64, ptr %20, align 8, !tbaa !3
  store i64 %80, ptr %22, align 8, !tbaa !3
  br label %81

81:                                               ; preds = %134, %76
  %82 = load i64, ptr %22, align 8, !tbaa !3
  %83 = load i64, ptr %21, align 8, !tbaa !3
  %84 = icmp slt i64 %82, %83
  br i1 %84, label %85, label %137

85:                                               ; preds = %81
  %86 = load i64, ptr %19, align 8, !tbaa !3
  store i64 %86, ptr %23, align 8, !tbaa !3
  %87 = load i64, ptr %18, align 8, !tbaa !3
  %88 = load i64, ptr %22, align 8, !tbaa !3
  %89 = sub nsw i64 %87, %88
  %90 = sub nsw i64 %89, 1
  %91 = load i64, ptr %19, align 8, !tbaa !3
  %92 = icmp slt i64 %90, %91
  br i1 %92, label %93, label %98

93:                                               ; preds = %85
  %94 = load i64, ptr %18, align 8, !tbaa !3
  %95 = load i64, ptr %22, align 8, !tbaa !3
  %96 = sub nsw i64 %94, %95
  %97 = sub nsw i64 %96, 1
  store i64 %97, ptr %23, align 8, !tbaa !3
  br label %98

98:                                               ; preds = %93, %85
  %99 = load i64, ptr %23, align 8, !tbaa !3
  %100 = load ptr, ptr %14, align 8, !tbaa !9
  %101 = load i64, ptr %22, align 8, !tbaa !3
  %102 = mul nsw i64 %101, 1
  %103 = getelementptr inbounds double, ptr %100, i64 %102
  %104 = getelementptr inbounds double, ptr %103, i64 0
  %105 = load double, ptr %104, align 8, !tbaa !7
  %106 = load ptr, ptr %13, align 8, !tbaa !9
  %107 = getelementptr inbounds double, ptr %106, i64 1
  %108 = load ptr, ptr %15, align 8, !tbaa !9
  %109 = load i64, ptr %22, align 8, !tbaa !3
  %110 = add nsw i64 %109, 1
  %111 = mul nsw i64 %110, 1
  %112 = getelementptr inbounds double, ptr %108, i64 %111
  %113 = call i32 @daxpy_k(i64 noundef %99, i64 noundef 0, i64 noundef 0, double noundef %105, ptr noundef %107, i64 noundef 1, ptr noundef %112, i64 noundef 1, ptr noundef null, i64 noundef 0)
  %114 = load i64, ptr %23, align 8, !tbaa !3
  %115 = add nsw i64 %114, 1
  %116 = load ptr, ptr %13, align 8, !tbaa !9
  %117 = load ptr, ptr %14, align 8, !tbaa !9
  %118 = load i64, ptr %22, align 8, !tbaa !3
  %119 = mul nsw i64 %118, 1
  %120 = getelementptr inbounds double, ptr %117, i64 %119
  %121 = call double @ddot_k(i64 noundef %115, ptr noundef %116, i64 noundef 1, ptr noundef %120, i64 noundef 1)
  store double %121, ptr %24, align 8, !tbaa !7
  %122 = load double, ptr %24, align 8, !tbaa !7
  %123 = load ptr, ptr %15, align 8, !tbaa !9
  %124 = load i64, ptr %22, align 8, !tbaa !3
  %125 = mul nsw i64 %124, 1
  %126 = getelementptr inbounds double, ptr %123, i64 %125
  %127 = getelementptr inbounds double, ptr %126, i64 0
  %128 = load double, ptr %127, align 8, !tbaa !7
  %129 = fadd double %128, %122
  store double %129, ptr %127, align 8, !tbaa !7
  %130 = load i64, ptr %16, align 8, !tbaa !3
  %131 = mul nsw i64 %130, 1
  %132 = load ptr, ptr %13, align 8, !tbaa !9
  %133 = getelementptr inbounds double, ptr %132, i64 %131
  store ptr %133, ptr %13, align 8, !tbaa !9
  br label %134

134:                                              ; preds = %98
  %135 = load i64, ptr %22, align 8, !tbaa !3
  %136 = add nsw i64 %135, 1
  store i64 %136, ptr %22, align 8, !tbaa !3
  br label %81, !llvm.loop !40

137:                                              ; preds = %81
  call void @llvm.lifetime.end.p0(i64 8, ptr %24) #6
  call void @llvm.lifetime.end.p0(i64 8, ptr %23) #6
  call void @llvm.lifetime.end.p0(i64 8, ptr %22) #6
  call void @llvm.lifetime.end.p0(i64 8, ptr %21) #6
  call void @llvm.lifetime.end.p0(i64 8, ptr %20) #6
  call void @llvm.lifetime.end.p0(i64 8, ptr %19) #6
  call void @llvm.lifetime.end.p0(i64 8, ptr %18) #6
  call void @llvm.lifetime.end.p0(i64 8, ptr %17) #6
  call void @llvm.lifetime.end.p0(i64 8, ptr %16) #6
  call void @llvm.lifetime.end.p0(i64 8, ptr %15) #6
  call void @llvm.lifetime.end.p0(i64 8, ptr %14) #6
  call void @llvm.lifetime.end.p0(i64 8, ptr %13) #6
  ret i32 0
}