; Function Attrs: nounwind uwtable
define internal noundef i32 @sbmv_kernel(ptr noundef readonly captures(none) %0, ptr noundef readonly captures(address_is_null) %1, ptr readnone captures(none) %2, ptr readnone captures(none) %3, ptr noundef %4, i64 %5) #0 {
  %7 = load ptr, ptr %0, align 8, !tbaa !11
  %8 = getelementptr inbounds nuw i8, ptr %0, i64 8
  %9 = load ptr, ptr %8, align 8, !tbaa !12
  %10 = getelementptr inbounds nuw i8, ptr %0, i64 72
  %11 = load i64, ptr %10, align 8, !tbaa !14
  %12 = getelementptr inbounds nuw i8, ptr %0, i64 80
  %13 = load i64, ptr %12, align 8, !tbaa !15
  %14 = getelementptr inbounds nuw i8, ptr %0, i64 56
  %15 = load i64, ptr %14, align 8, !tbaa !3
  %16 = getelementptr inbounds nuw i8, ptr %0, i64 64
  %17 = load i64, ptr %16, align 8, !tbaa !10
  %18 = add nsw i64 %15, 1023
  %19 = and i64 %18, -1024
  %20 = getelementptr inbounds double, ptr %4, i64 %19
  %.not = icmp eq ptr %1, null
  br i1 %.not, label %27, label %21

21:                                               ; preds = %6
  %22 = load i64, ptr %1, align 8, !tbaa !17
  %23 = getelementptr inbounds nuw i8, ptr %1, i64 8
  %24 = load i64, ptr %23, align 8, !tbaa !17
  %25 = mul nsw i64 %22, %11
  %26 = getelementptr inbounds double, ptr %7, i64 %25
  br label %27

27:                                               ; preds = %21, %6
  %.051 = phi ptr [ %26, %21 ], [ %7, %6 ]
  %.050 = phi i64 [ %22, %21 ], [ 0, %6 ]
  %.049 = phi i64 [ %24, %21 ], [ %15, %6 ]
  %.not57 = icmp eq i64 %13, 1
  br i1 %.not57, label %30, label %28

28:                                               ; preds = %27
  %29 = tail call i32 @dcopy_k(i64 noundef %15, ptr noundef %9, i64 noundef %13, ptr noundef %20, i64 noundef 1) #7
  br label %30

30:                                               ; preds = %28, %27
  %.052 = phi ptr [ %20, %28 ], [ %9, %27 ]
  %31 = tail call i32 @dscal_k(i64 noundef %15, i64 noundef 0, i64 noundef 0, double noundef 0.000000e+00, ptr noundef %4, i64 noundef 1, ptr noundef null, i64 noundef 0, ptr noundef null, i64 noundef 0) #7
  %32 = icmp slt i64 %.050, %.049
  br i1 %32, label %.lr.ph, label %._crit_edge

.lr.ph:                                           ; preds = %30, %.lr.ph
  %.04859 = phi i64 [ %38, %.lr.ph ], [ %.050, %30 ]
  %.158 = phi ptr [ %46, %.lr.ph ], [ %.051, %30 ]
  %33 = xor i64 %.04859, -1
  %34 = add i64 %15, %33
  %spec.select = tail call i64 @llvm.smin.i64(i64 %34, i64 %17)
  %35 = getelementptr inbounds double, ptr %.052, i64 %.04859
  %36 = load double, ptr %35, align 8, !tbaa !34
  %37 = getelementptr inbounds nuw i8, ptr %.158, i64 8
  %38 = add nsw i64 %.04859, 1
  %39 = getelementptr inbounds double, ptr %4, i64 %38
  %40 = tail call i32 @daxpy_k(i64 noundef %spec.select, i64 noundef 0, i64 noundef 0, double noundef %36, ptr noundef nonnull %37, i64 noundef 1, ptr noundef %39, i64 noundef 1, ptr noundef null, i64 noundef 0) #7
  %41 = add nsw i64 %spec.select, 1
  %42 = tail call double @ddot_k(i64 noundef %41, ptr noundef %.158, i64 noundef 1, ptr noundef nonnull %35, i64 noundef 1) #7
  %43 = getelementptr inbounds double, ptr %4, i64 %.04859
  %44 = load double, ptr %43, align 8, !tbaa !34
  %45 = fadd double %42, %44
  store double %45, ptr %43, align 8, !tbaa !34
  %46 = getelementptr inbounds double, ptr %.158, i64 %11
  %exitcond.not = icmp eq i64 %38, %.049
  br i1 %exitcond.not, label %._crit_edge, label %.lr.ph, !llvm.loop !36

._crit_edge:                                      ; preds = %.lr.ph, %30
  ret i32 0
}